target datalayout = "e-m:e-p270:32:32-p271:32:32-p272:64:64-i64:64-i128:128-f80:128-n8:16:32:64-S128"
target triple = "x86_64-unknown-linux-gnu"

%"class.sat::literal" = type { i32 }
%class.svector.5 = type { %class.vector.6 }
%class.vector.6 = type { ptr }
%"class.pb::solver" = type <{ %"class.euf::th_solver", %"class.pb::solver_interface", ptr, %class.pb_util, ptr, ptr, %"struct.pb::solver::stats", [4 x i8], %class.small_object_allocator, %class.ptr_vector.3, %class.ptr_vector.3, %class.ptr_vector.3, %class.svector.5, i32, i32, i32, i32, %class.svector.7, %class.svector.5, i32, [4 x i8], %class.tracked_uint_set, %class.svector.11, %class.svector.11, i32, [4 x i8], %class.svector.5, %class.svector.11, %class.svector.5, %"struct.pb::solver::ba_sort", %class.psort_nw, %class.vector.13, %"class.sat::use_list", i8, i8, i8, [5 x i8], %class.svector.11, %class.svector.15, %class.svector.5, %class.svector.17, i32, i8, [3 x i8], %"struct.pb::solver::ineq", %"struct.pb::solver::ineq", %"struct.pb::solver::ineq", i8, [7 x i8] }>
%"class.euf::th_solver" = type { %"class.sat::extension", %"class.euf::th_model_builder", %"class.euf::th_decompile", %"class.euf::th_internalizer", ptr }
%"class.sat::extension" = type { ptr, i8, i32, %class.symbol, ptr }
%class.symbol = type { ptr }
%"class.euf::th_model_builder" = type { ptr }
%"class.euf::th_decompile" = type { ptr }
%"class.euf::th_internalizer" = type { ptr, %class.ptr_vector, %class.svector }
%class.ptr_vector = type { %class.vector }
%class.vector = type { ptr }
%class.svector = type { %class.vector.0 }
%class.vector.0 = type { ptr }
%"class.pb::solver_interface" = type { ptr }
%class.pb_util = type { ptr, i32, %class.vector.1, %class.vector.2, %class.rational }
%class.vector.1 = type { ptr }
%class.vector.2 = type { ptr }
%class.rational = type { %class.mpq }
%class.mpq = type { %class.mpz, %class.mpz }
%class.mpz = type { i32, i8, ptr }
%"struct.pb::solver::stats" = type { i32, i32, i32, i32, i32, i32, i32, i32, i32, i32, i32 }
%class.small_object_allocator = type { [32 x ptr], [32 x ptr], i64 }
%class.ptr_vector.3 = type { %class.vector.4 }
%class.vector.4 = type { ptr }
%class.svector.7 = type { %class.vector.8 }
%class.vector.8 = type { ptr }
%class.tracked_uint_set = type { %class.svector.9, %class.svector.5 }
%class.svector.9 = type { %class.vector.10 }
%class.vector.10 = type { ptr }
%"struct.pb::solver::ba_sort" = type { ptr, %"class.sat::literal", %class.svector.11 }
%class.psort_nw = type { %struct.sorting_network_config, ptr, i32, %"struct.psort_nw<pb::solver::ba_sort>::stats" }
%struct.sorting_network_config = type { i32 }
%"struct.psort_nw<pb::solver::ba_sort>::stats" = type { i32, i32, i32 }
%class.vector.13 = type { ptr }
%"class.sat::use_list" = type { %class.vector.14 }
%class.vector.14 = type { ptr }
%class.svector.11 = type { %class.vector.12 }
%class.vector.12 = type { ptr }
%class.svector.15 = type { %class.vector.16 }
%class.vector.16 = type { ptr }
%class.svector.17 = type { %class.vector.18 }
%class.vector.18 = type { ptr }
%"struct.pb::solver::ineq" = type { %class.svector.17, i64 }

; Function Attrs: mustprogress nounwind uwtable
define linkonce_odr hidden noundef i32 @_ZNK6vectorIlLb0EjE4sizeEv(ptr noundef nonnull align 8 dereferenceable(8) %this) #4 comdat align 2 {
entry:
  %retval = alloca i32, align 4
  %this.addr = alloca ptr, align 8
  store ptr %this, ptr %this.addr, align 8
  %this1 = load ptr, ptr %this.addr, align 8
  %m_data = getelementptr inbounds %class.vector.8, ptr %this1, i32 0, i32 0
  %0 = load ptr, ptr %m_data, align 8
  %cmp = icmp eq ptr %0, null
  br i1 %cmp, label %if.then, label %if.end

if.then:                                          ; preds = %entry
  store i32 0, ptr %retval, align 4
  br label %return

if.end:                                           ; preds = %entry
  %m_data2 = getelementptr inbounds %class.vector.8, ptr %this1, i32 0, i32 0
  %1 = load ptr, ptr %m_data2, align 8
  %arrayidx = getelementptr inbounds i32, ptr %1, i64 -1
  %2 = load i32, ptr %arrayidx, align 4
  store i32 %2, ptr %retval, align 4
  br label %return

return:                                           ; preds = %if.end, %if.then
  %3 = load i32, ptr %retval, align 4
  ret i32 %3
}

; Function Attrs: mustprogress nounwind uwtable
define linkonce_odr hidden noundef nonnull align 8 dereferenceable(8) ptr @_ZNK6vectorIlLb0EjE3getEjRKl(ptr noundef nonnull align 8 dereferenceable(8) %this, i32 noundef %idx, ptr noundef nonnull align 8 dereferenceable(8) %d) #4 comdat align 2 {
entry:
  %retval = alloca ptr, align 8
  %this.addr = alloca ptr, align 8
  %idx.addr = alloca i32, align 4
  %d.addr = alloca ptr, align 8
  store ptr %this, ptr %this.addr, align 8
  store i32 %idx, ptr %idx.addr, align 4
  store ptr %d, ptr %d.addr, align 8
  %this1 = load ptr, ptr %this.addr, align 8
  %0 = load i32, ptr %idx.addr, align 4
  %call = call noundef i32 @_ZNK6vectorIlLb0EjE4sizeEv(ptr noundef nonnull align 8 dereferenceable(8) %this1)
  %cmp = icmp uge i32 %0, %call
  br i1 %cmp, label %if.then, label %if.end

if.then:                                          ; preds = %entry
  %1 = load ptr, ptr %d.addr, align 8
  store ptr %1, ptr %retval, align 8
  br label %return

if.end:                                           ; preds = %entry
  %m_data = getelementptr inbounds %class.vector.8, ptr %this1, i32 0, i32 0
  %2 = load ptr, ptr %m_data, align 8
  %3 = load i32, ptr %idx.addr, align 4
  %idxprom = zext i32 %3 to i64
  %arrayidx = getelementptr inbounds i64, ptr %2, i64 %idxprom
  store ptr %arrayidx, ptr %retval, align 8
  br label %return

return:                                           ; preds = %if.end, %if.then
  %4 = load ptr, ptr %retval, align 8
  ret ptr %4
}

; Function Attrs: mustprogress nounwind uwtable
define linkonce_odr noundef i64 @_ZSt3absl(i64 noundef %__i) #4 comdat {
entry:
  %__i.addr = alloca i64, align 8
  store i64 %__i, ptr %__i.addr, align 8
  %0 = load i64, ptr %__i.addr, align 8
  %1 = call i64 @llvm.abs.i64(i64 %0, i1 true)
  ret i64 %1
}

; Function Attrs: mustprogress nounwind uwtable
define linkonce_odr hidden void @_ZN3sat7literalC2Ejb(ptr noundef nonnull align 4 dereferenceable(4) %this, i32 noundef %v, i1 noundef zeroext %_sign) unnamed_addr #4 comdat align 2 {
entry:
  %this.addr = alloca ptr, align 8
  %v.addr = alloca i32, align 4
  %_sign.addr = alloca i8, align 1
  store ptr %this, ptr %this.addr, align 8
  store i32 %v, ptr %v.addr, align 4
  %frombool = zext i1 %_sign to i8
  store i8 %frombool, ptr %_sign.addr, align 1
  %this1 = load ptr, ptr %this.addr, align 8
  %m_val = getelementptr inbounds %"class.sat::literal", ptr %this1, i32 0, i32 0
  %0 = load i32, ptr %v.addr, align 4
  %shl = shl i32 %0, 1
  %1 = load i8, ptr %_sign.addr, align 1
  %tobool = trunc i8 %1 to i1
  %conv = zext i1 %tobool to i32
  %add = add i32 %shl, %conv
  store i32 %add, ptr %m_val, align 4
  ret void
}

; Function Attrs: mustprogress uwtable
define hidden noundef i64 @_ZNK2pb6solver9get_coeffEj(ptr noundef nonnull align 8 dereferenceable(1049) %this, i32 noundef %v) #5 align 2 {
entry:
  %this.addr = alloca ptr, align 8
  %v.addr = alloca i32, align 4
  %ref.tmp = alloca i64, align 8
  store ptr %this, ptr %this.addr, align 8
  store i32 %v, ptr %v.addr, align 4
  %this1 = load ptr, ptr %this.addr, align 8
  %m_coeffs = getelementptr inbounds %"class.pb::solver", ptr %this1, i32 0, i32 17
  %0 = load i32, ptr %v.addr, align 4
  store i64 0, ptr %ref.tmp, align 8
  %call = call noundef nonnull align 8 dereferenceable(8) ptr @_ZNK6vectorIlLb0EjE3getEjRKl(ptr noundef nonnull align 8 dereferenceable(8) %m_coeffs, i32 noundef %0, ptr noundef nonnull align 8 dereferenceable(8) %ref.tmp)
  %1 = load i64, ptr %call, align 8
  ret i64 %1
}

; Function Attrs: mustprogress nounwind uwtable
define linkonce_odr hidden noundef nonnull align 4 dereferenceable(4) ptr @_ZN6vectorIjLb0EjEixEj(ptr noundef nonnull align 8 dereferenceable(8) %this, i32 noundef %idx) #4 comdat align 2 {
entry:
  %this.addr = alloca ptr, align 8
  %idx.addr = alloca i32, align 4
  store ptr %this, ptr %this.addr, align 8
  store i32 %idx, ptr %idx.addr, align 4
  %this1 = load ptr, ptr %this.addr, align 8
  %m_data = getelementptr inbounds %class.vector.6, ptr %this1, i32 0, i32 0
  %0 = load ptr, ptr %m_data, align 8
  %1 = load i32, ptr %idx.addr, align 4
  %idxprom = zext i32 %1 to i64
  %arrayidx = getelementptr inbounds i32, ptr %0, i64 %idxprom
  ret ptr %arrayidx
}

; Function Attrs: mustprogress nounwind uwtable
define linkonce_odr hidden noundef i32 @_ZNK6vectorIjLb0EjE4sizeEv(ptr noundef nonnull align 8 dereferenceable(8) %this) #4 comdat align 2 {
entry:
  %retval = alloca i32, align 4
  %this.addr = alloca ptr, align 8
  store ptr %this, ptr %this.addr, align 8
  %this1 = load ptr, ptr %this.addr, align 8
  %m_data = getelementptr inbounds %class.vector.6, ptr %this1, i32 0, i32 0
  %0 = load ptr, ptr %m_data, align 8
  %cmp = icmp eq ptr %0, null
  br i1 %cmp, label %if.then, label %if.end

if.then:                                          ; preds = %entry
  store i32 0, ptr %retval, align 4
  br label %return

if.end:                                           ; preds = %entry
  %m_data2 = getelementptr inbounds %class.vector.6, ptr %this1, i32 0, i32 0
  %1 = load ptr, ptr %m_data2, align 8
  %arrayidx = getelementptr inbounds i32, ptr %1, i64 -1
  %2 = load i32, ptr %arrayidx, align 4
  store i32 %2, ptr %retval, align 4
  br label %return

return:                                           ; preds = %if.end, %if.then
  %3 = load i32, ptr %retval, align 4
  ret i32 %3
}

; Function Attrs: mustprogress uwtable
define hidden noundef i32 @_ZNK2pb6solver13get_abs_coeffEj(ptr noundef nonnull align 8 dereferenceable(1049) %this, i32 noundef %v) #5 align 2 {
entry:
  %this.addr = alloca ptr, align 8
  %v.addr = alloca i32, align 4
  %c1 = alloca i64, align 8
  %c = alloca i32, align 4
  store ptr %this, ptr %this.addr, align 8
  store i32 %v, ptr %v.addr, align 4
  %this1 = load ptr, ptr %this.addr, align 8
  %0 = load i32, ptr %v.addr, align 4
  %call = call noundef i64 @_ZNK2pb6solver9get_coeffEj(ptr noundef nonnull align 8 dereferenceable(1049) %this1, i32 noundef %0)
  %call2 = call noundef i64 @_ZSt3absl(i64 noundef %call)
  store i64 %call2, ptr %c1, align 8
  %1 = load i64, ptr %c1, align 8
  %conv = trunc i64 %1 to i32
  store i32 %conv, ptr %c, align 4
  %2 = load i32, ptr %c, align 4
  %conv3 = zext i32 %2 to i64
  %3 = load i64, ptr %c1, align 8
  %cmp = icmp ne i64 %conv3, %3
  %conv4 = zext i1 %cmp to i32
  %m_overflow = getelementptr inbounds %"class.pb::solver", ptr %this1, i32 0, i32 42
  %4 = load i8, ptr %m_overflow, align 4
  %tobool = trunc i8 %4 to i1
  %conv5 = zext i1 %tobool to i32
  %or = or i32 %conv5, %conv4
  %tobool6 = icmp ne i32 %or, 0
  %frombool = zext i1 %tobool6 to i8
  store i8 %frombool, ptr %m_overflow, align 4
  %5 = load i32, ptr %c, align 4
  ret i32 %5
}

; Function Attrs: mustprogress nounwind uwtable
define linkonce_odr hidden noundef i32 @_ZNK3sat7literal3varEv(ptr noundef nonnull align 4 dereferenceable(4) %this) #4 comdat align 2 {
entry:
  %this.addr = alloca ptr, align 8
  store ptr %this, ptr %this.addr, align 8
  %this1 = load ptr, ptr %this.addr, align 8
  %m_val = getelementptr inbounds %"class.sat::literal", ptr %this1, i32 0, i32 0
  %0 = load i32, ptr %m_val, align 4
  %shr = lshr i32 %0, 1
  ret i32 %shr
}

; Function Attrs: mustprogress uwtable
define hidden i32 @_ZN2pb6solver21get_asserting_literalEN3sat7literalE(ptr noundef nonnull align 8 dereferenceable(1049) %this, i32 %p.coerce) #5 align 2 {
entry:
  %retval = alloca %"class.sat::literal", align 4
  %p = alloca %"class.sat::literal", align 4
  %this.addr = alloca ptr, align 8
  %level = alloca i32, align 4
  %i = alloca i32, align 4
  %v = alloca i32, align 4
  %lit = alloca %"class.sat::literal", align 4
  %agg.tmp = alloca %"class.sat::literal", align 4
  %agg.tmp12 = alloca %"class.sat::literal", align 4
  %agg.tmp19 = alloca %"class.sat::literal", align 4
  %coerce.dive = getelementptr inbounds %"class.sat::literal", ptr %p, i32 0, i32 0
  store i32 %p.coerce, ptr %coerce.dive, align 4
  store ptr %this, ptr %this.addr, align 8
  %this1 = load ptr, ptr %this.addr, align 8
  %call = call noundef i32 @_ZNK3sat7literal3varEv(ptr noundef nonnull align 4 dereferenceable(4) %p)
  %call2 = call noundef i32 @_ZNK2pb6solver13get_abs_coeffEj(ptr noundef nonnull align 8 dereferenceable(1049) %this1, i32 noundef %call)
  %cmp = icmp ne i32 %call2, 0
  br i1 %cmp, label %if.then, label %if.end

if.then:                                          ; preds = %entry
  call void @llvm.memcpy.p0.p0.i64(ptr align 4 %retval, ptr align 4 %p, i64 4, i1 false)
  br label %return

if.end:                                           ; preds = %entry
  store i32 0, ptr %level, align 4
  store i32 0, ptr %i, align 4
  br label %for.cond

for.cond:                                         ; preds = %for.inc, %if.end
  %0 = load i32, ptr %i, align 4
  %m_active_vars = getelementptr inbounds %"class.pb::solver", ptr %this1, i32 0, i32 18
  %call3 = call noundef i32 @_ZNK6vectorIjLb0EjE4sizeEv(ptr noundef nonnull align 8 dereferenceable(8) %m_active_vars)
  %cmp4 = icmp ult i32 %0, %call3
  br i1 %cmp4, label %for.body, label %for.end

for.body:                                         ; preds = %for.cond
  %m_active_vars5 = getelementptr inbounds %"class.pb::solver", ptr %this1, i32 0, i32 18
  %1 = load i32, ptr %i, align 4
  %call6 = call noundef nonnull align 4 dereferenceable(4) ptr @_ZN6vectorIjLb0EjEixEj(ptr noundef nonnull align 8 dereferenceable(8) %m_active_vars5, i32 noundef %1)
  %2 = load i32, ptr %call6, align 4
  store i32 %2, ptr %v, align 4
  %3 = load i32, ptr %v, align 4
  %4 = load i32, ptr %v, align 4
  %call7 = call noundef i64 @_ZNK2pb6solver9get_coeffEj(ptr noundef nonnull align 8 dereferenceable(1049) %this1, i32 noundef %4)
  %cmp8 = icmp slt i64 %call7, 0
  call void @_ZN3sat7literalC2Ejb(ptr noundef nonnull align 4 dereferenceable(4) %lit, i32 noundef %3, i1 noundef zeroext %cmp8)
  call void @llvm.memcpy.p0.p0.i64(ptr align 4 %agg.tmp, ptr align 4 %lit, i64 4, i1 false)
  %coerce.dive9 = getelementptr inbounds %"class.sat::literal", ptr %agg.tmp, i32 0, i32 0
  %5 = load i32, ptr %coerce.dive9, align 4
  %vtable = load ptr, ptr %this1, align 8
  %vfn = getelementptr inbounds ptr, ptr %vtable, i64 65
  %6 = load ptr, ptr %vfn, align 8
  %call10 = call noundef i32 %6(ptr noundef nonnull align 8 dereferenceable(1049) %this1, i32 %5)
  %cmp11 = icmp eq i32 %call10, -1
  br i1 %cmp11, label %land.lhs.true, label %if.end24

land.lhs.true:                                    ; preds = %for.body
  call void @llvm.memcpy.p0.p0.i64(ptr align 4 %agg.tmp12, ptr align 4 %lit, i64 4, i1 false)
  %coerce.dive13 = getelementptr inbounds %"class.sat::literal", ptr %agg.tmp12, i32 0, i32 0
  %7 = load i32, ptr %coerce.dive13, align 4
  %vtable14 = load ptr, ptr %this1, align 8
  %vfn15 = getelementptr inbounds ptr, ptr %vtable14, i64 67
  %8 = load ptr, ptr %vfn15, align 8
  %call16 = call noundef i32 %8(ptr noundef nonnull align 8 dereferenceable(1049) %this1, i32 %7)
  %9 = load i32, ptr %level, align 4
  %cmp17 = icmp ugt i32 %call16, %9
  br i1 %cmp17, label %if.then18, label %if.end24

if.then18:                                        ; preds = %land.lhs.true
  call void @llvm.memcpy.p0.p0.i64(ptr align 4 %p, ptr align 4 %lit, i64 4, i1 false)
  call void @llvm.memcpy.p0.p0.i64(ptr align 4 %agg.tmp19, ptr align 4 %lit, i64 4, i1 false)
  %coerce.dive20 = getelementptr inbounds %"class.sat::literal", ptr %agg.tmp19, i32 0, i32 0
  %10 = load i32, ptr %coerce.dive20, align 4
  %vtable21 = load ptr, ptr %this1, align 8
  %vfn22 = getelementptr inbounds ptr, ptr %vtable21, i64 67
  %11 = load ptr, ptr %vfn22, align 8
  %call23 = call noundef i32 %11(ptr noundef nonnull align 8 dereferenceable(1049) %this1, i32 %10)
  store i32 %call23, ptr %level, align 4
  br label %if.end24

if.end24:                                         ; preds = %if.then18, %land.lhs.true, %for.body
  br label %for.inc

for.inc:                                          ; preds = %if.end24
  %12 = load i32, ptr %i, align 4
  %inc = add i32 %12, 1
  store i32 %inc, ptr %i, align 4
  br label %for.cond, !llvm.loop !42

for.end:                                          ; preds = %for.cond
  call void @llvm.memcpy.p0.p0.i64(ptr align 4 %retval, ptr align 4 %p, i64 4, i1 false)
  br label %return

return:                                           ; preds = %for.end, %if.then
  %coerce.dive25 = getelementptr inbounds %"class.sat::literal", ptr %retval, i32 0, i32 0
  %13 = load i32, ptr %coerce.dive25, align 4
  ret i32 %13
}