; Function Attrs: mustprogress uwtable
define hidden i32 @_ZN2pb6solver21get_asserting_literalEN3sat7literalE(ptr noundef nonnull align 8 dereferenceable(1049) %this, i32 %p.coerce) local_unnamed_addr #3 align 2 {
entry:
  %shr.i = lshr i32 %p.coerce, 1
  %m_coeffs.i.i = getelementptr inbounds i8, ptr %this, i64 792
  %0 = load ptr, ptr %m_coeffs.i.i, align 8
  %cmp.i.i.i.i = icmp eq ptr %0, null
  br i1 %cmp.i.i.i.i, label %_ZNK2pb6solver13get_abs_coeffEj.exit, label %_ZNK6vectorIlLb0EjE3getEjRKl.exit.i.i

_ZNK6vectorIlLb0EjE3getEjRKl.exit.i.i:            ; preds = %entry
  %arrayidx.i.i.i.i = getelementptr inbounds i8, ptr %0, i64 -4
  %1 = load i32, ptr %arrayidx.i.i.i.i, align 4
  %cmp.not.i.i.i = icmp ugt i32 %1, %shr.i
  br i1 %cmp.not.i.i.i, label %_ZNK6vectorIlLb0EjE3getEjRKl.exit.then.i.i, label %_ZNK2pb6solver13get_abs_coeffEj.exit

_ZNK6vectorIlLb0EjE3getEjRKl.exit.then.i.i:       ; preds = %_ZNK6vectorIlLb0EjE3getEjRKl.exit.i.i
  %idxprom.i.i.i = zext nneg i32 %shr.i to i64
  %arrayidx.i.i.i = getelementptr inbounds i64, ptr %0, i64 %idxprom.i.i.i
  %.then.val.i.i = load i64, ptr %arrayidx.i.i.i, align 8
  br label %_ZNK2pb6solver13get_abs_coeffEj.exit

_ZNK2pb6solver13get_abs_coeffEj.exit:             ; preds = %entry, %_ZNK6vectorIlLb0EjE3getEjRKl.exit.i.i, %_ZNK6vectorIlLb0EjE3getEjRKl.exit.then.i.i
  %2 = phi i64 [ %.then.val.i.i, %_ZNK6vectorIlLb0EjE3getEjRKl.exit.then.i.i ], [ 0, %_ZNK6vectorIlLb0EjE3getEjRKl.exit.i.i ], [ 0, %entry ]
  %3 = tail call noundef i64 @llvm.abs.i64(i64 %2, i1 true)
  %cmp.i = icmp ugt i64 %3, 4294967295
  %m_overflow.i = getelementptr inbounds i8, ptr %this, i64 996
  %4 = load i8, ptr %m_overflow.i, align 4
  %5 = and i8 %4, 1
  %6 = zext i1 %cmp.i to i8
  %7 = or i8 %5, %6
  store i8 %7, ptr %m_overflow.i, align 4
  %8 = and i64 %3, 4294967295
  %cmp.not = icmp eq i64 %8, 0
  br i1 %cmp.not, label %for.cond.preheader, label %return

for.cond.preheader:                               ; preds = %_ZNK2pb6solver13get_abs_coeffEj.exit
  %m_active_vars = getelementptr inbounds i8, ptr %this, i64 800
  br label %for.cond

for.cond:                                         ; preds = %for.cond.preheader, %for.inc
  %indvars.iv = phi i64 [ 0, %for.cond.preheader ], [ %indvars.iv.next, %for.inc ]
  %p.sroa.0.0 = phi i32 [ %p.coerce, %for.cond.preheader ], [ %p.sroa.0.1, %for.inc ]
  %level.0 = phi i32 [ 0, %for.cond.preheader ], [ %level.1, %for.inc ]
  %9 = load ptr, ptr %m_active_vars, align 8
  %cmp.i5 = icmp eq ptr %9, null
  br i1 %cmp.i5, label %_ZNK6vectorIjLb0EjE4sizeEv.exit, label %if.end.i

if.end.i:                                         ; preds = %for.cond
  %arrayidx.i = getelementptr inbounds i8, ptr %9, i64 -4
  %10 = load i32, ptr %arrayidx.i, align 4
  br label %_ZNK6vectorIjLb0EjE4sizeEv.exit

_ZNK6vectorIjLb0EjE4sizeEv.exit:                  ; preds = %for.cond, %if.end.i
  %retval.0.i = phi i32 [ %10, %if.end.i ], [ 0, %for.cond ]
  %11 = zext i32 %retval.0.i to i64
  %cmp4 = icmp ult i64 %indvars.iv, %11
  br i1 %cmp4, label %for.body, label %return

for.body:                                         ; preds = %_ZNK6vectorIjLb0EjE4sizeEv.exit
  %arrayidx.i6 = getelementptr inbounds i32, ptr %9, i64 %indvars.iv
  %12 = load i32, ptr %arrayidx.i6, align 4
  %13 = load ptr, ptr %m_coeffs.i.i, align 8
  %cmp.i.i.i = icmp eq ptr %13, null
  br i1 %cmp.i.i.i, label %_ZNK2pb6solver9get_coeffEj.exit, label %_ZNK6vectorIlLb0EjE3getEjRKl.exit.i

_ZNK6vectorIlLb0EjE3getEjRKl.exit.i:              ; preds = %for.body
  %arrayidx.i.i.i7 = getelementptr inbounds i8, ptr %13, i64 -4
  %14 = load i32, ptr %arrayidx.i.i.i7, align 4
  %cmp.not.i.i = icmp ugt i32 %14, %12
  br i1 %cmp.not.i.i, label %_ZNK6vectorIlLb0EjE3getEjRKl.exit.then.i, label %_ZNK2pb6solver9get_coeffEj.exit

_ZNK6vectorIlLb0EjE3getEjRKl.exit.then.i:         ; preds = %_ZNK6vectorIlLb0EjE3getEjRKl.exit.i
  %idxprom.i.i = zext i32 %12 to i64
  %arrayidx.i.i = getelementptr inbounds i64, ptr %13, i64 %idxprom.i.i
  %.then.val.i = load i64, ptr %arrayidx.i.i, align 8
  br label %_ZNK2pb6solver9get_coeffEj.exit

_ZNK2pb6solver9get_coeffEj.exit:                  ; preds = %for.body, %_ZNK6vectorIlLb0EjE3getEjRKl.exit.i, %_ZNK6vectorIlLb0EjE3getEjRKl.exit.then.i
  %15 = phi i64 [ %.then.val.i, %_ZNK6vectorIlLb0EjE3getEjRKl.exit.then.i ], [ 0, %_ZNK6vectorIlLb0EjE3getEjRKl.exit.i ], [ 0, %for.body ]
  %shl.i = shl i32 %12, 1
  %.lobit = lshr i64 %15, 63
  %conv.i8 = trunc i64 %.lobit to i32
  %add.i = or disjoint i32 %shl.i, %conv.i8
  %vtable = load ptr, ptr %this, align 8
  %vfn = getelementptr inbounds i8, ptr %vtable, i64 520
  %16 = load ptr, ptr %vfn, align 8
  %call10 = tail call noundef i32 %16(ptr noundef nonnull align 8 dereferenceable(1049) %this, i32 %add.i)
  %cmp11 = icmp eq i32 %call10, -1
  br i1 %cmp11, label %land.lhs.true, label %for.inc

land.lhs.true:                                    ; preds = %_ZNK2pb6solver9get_coeffEj.exit
  %vtable14 = load ptr, ptr %this, align 8
  %vfn15 = getelementptr inbounds i8, ptr %vtable14, i64 536
  %17 = load ptr, ptr %vfn15, align 8
  %call16 = tail call noundef i32 %17(ptr noundef nonnull align 8 dereferenceable(1049) %this, i32 %add.i)
  %cmp17 = icmp ugt i32 %call16, %level.0
  br i1 %cmp17, label %if.then18, label %for.inc

if.then18:                                        ; preds = %land.lhs.true
  %vtable21 = load ptr, ptr %this, align 8
  %vfn22 = getelementptr inbounds i8, ptr %vtable21, i64 536
  %18 = load ptr, ptr %vfn22, align 8
  %call23 = tail call noundef i32 %18(ptr noundef nonnull align 8 dereferenceable(1049) %this, i32 %add.i)
  br label %for.inc

for.inc:                                          ; preds = %_ZNK2pb6solver9get_coeffEj.exit, %land.lhs.true, %if.then18
  %p.sroa.0.1 = phi i32 [ %add.i, %if.then18 ], [ %p.sroa.0.0, %land.lhs.true ], [ %p.sroa.0.0, %_ZNK2pb6solver9get_coeffEj.exit ]
  %level.1 = phi i32 [ %call23, %if.then18 ], [ %level.0, %land.lhs.true ], [ %level.0, %_ZNK2pb6solver9get_coeffEj.exit ]
  %indvars.iv.next = add nuw nsw i64 %indvars.iv, 1
  br label %for.cond, !llvm.loop !83

return:                                           ; preds = %_ZNK6vectorIjLb0EjE4sizeEv.exit, %_ZNK2pb6solver13get_abs_coeffEj.exit
  %p.sroa.0.2 = phi i32 [ %p.coerce, %_ZNK2pb6solver13get_abs_coeffEj.exit ], [ %p.sroa.0.0, %_ZNK6vectorIjLb0EjE4sizeEv.exit ]
  ret i32 %p.sroa.0.2
}